#include <math.h>
#include <stdio.h>
#include <stdlib.h>
#include <string.h>

int main(){
	int n,i,j,k,m=0;
	int sz[300];
	scanf("%d",&n);
	for(i=0;i<n;i++){
		
		scanf("%d",&sz[i]);                                               
		
	}
	for(i=0;i<n-m;i++){
		for(j=i+1;j<n-m;j++){
			if(sz[j]==sz[i]){
				if(j==n-m){
					m+=1;
				}else{
				for(k=j;k<n-m;k++){
					
					sz[k]=sz[k+1];
				}
				m+=1;
				}
				j-=1;
			}
		}
	}
	for(i=0;i<n-m-1;i++){
	
    printf("%d,",sz[i]); 
} 
    printf("%d",sz[n-m-1]);
	
	return 0;
}
